; Function Attrs: mustprogress nounwind uwtable
define hidden noundef zeroext i1 @_ZN4cvc58internal6theory11quantifiers13EqualityQuery5resetENS1_6Theory6EffortE(ptr noundef nonnull align 8 dereferenceable(184) %this, i32 %e) unnamed_addr #4 align 2 personality ptr @__gxx_personality_v0 {
entry:
  %d_int_rep = getelementptr inbounds i8, ptr %this, i64 80
  %_M_parent.i.i.i.i = getelementptr inbounds i8, ptr %this, i64 96
  %0 = load ptr, ptr %_M_parent.i.i.i.i, align 8
  invoke void @_ZNSt8_Rb_treeIN4cvc58internal8TypeNodeESt4pairIKS2_St3mapINS1_12NodeTemplateILb1EEES7_St4lessIS7_ESaIS3_IKS7_S7_EEEESt10_Select1stISE_ES8_IS2_ESaISE_EE8_M_eraseEPSt13_Rb_tree_nodeISE_E(ptr noundef nonnull align 8 dereferenceable(48) %d_int_rep, ptr noundef %0)
          to label %_ZNSt3mapIN4cvc58internal8TypeNodeES_INS1_12NodeTemplateILb1EEES4_St4lessIS4_ESaISt4pairIKS4_S4_EEES5_IS2_ESaIS7_IKS2_SB_EEE5clearEv.exit unwind label %terminate.lpad.i.i

terminate.lpad.i.i:                               ; preds = %entry
  %1 = landingpad { ptr, i32 }
          catch ptr null
  %2 = extractvalue { ptr, i32 } %1, 0
  tail call void @__clang_call_terminate(ptr %2) #18
  unreachable

_ZNSt3mapIN4cvc58internal8TypeNodeES_INS1_12NodeTemplateILb1EEES4_St4lessIS4_ESaISt4pairIKS4_S4_EEES5_IS2_ESaIS7_IKS2_SB_EEE5clearEv.exit: ; preds = %entry
  %add.ptr.i.i = getelementptr inbounds i8, ptr %this, i64 88
  store ptr null, ptr %_M_parent.i.i.i.i, align 8
  %_M_left.i.i.i = getelementptr inbounds i8, ptr %this, i64 104
  store ptr %add.ptr.i.i, ptr %_M_left.i.i.i, align 8
  %_M_right.i.i.i = getelementptr inbounds i8, ptr %this, i64 112
  store ptr %add.ptr.i.i, ptr %_M_right.i.i.i, align 8
  %_M_node_count.i.i.i = getelementptr inbounds i8, ptr %this, i64 120
  store i64 0, ptr %_M_node_count.i.i.i, align 8
  %d_reset_count = getelementptr inbounds i8, ptr %this, i64 176
  %3 = load i64, ptr %d_reset_count, align 8
  %inc = add i64 %3, 1
  store i64 %inc, ptr %d_reset_count, align 8
  ret i1 true
}